target datalayout = "e-m:e-p270:32:32-p271:32:32-p272:64:64-i64:64-i128:128-f80:128-n8:16:32:64-S128"
target triple = "x86_64-pc-linux-gnu"

@_ZN7logging12_GLOBAL__N_115g_min_log_levelE = internal global i32 0, align 4
@_ZN7logging12_GLOBAL__N_121g_logging_destinationE = internal global i32 2, align 4
@_ZN7logging12_GLOBAL__N_119log_message_handlerB5cxx11E = internal global ptr null, align 8

; Function Attrs: mustprogress nounwind uwtable
define noundef zeroext i1 @_ZN7logging22ShouldCreateLogMessageEi(i32 noundef %0) #5 {
  %2 = alloca i1, align 1
  %3 = alloca i32, align 4
  store i32 %0, ptr %3, align 4, !tbaa !18
  %4 = load i32, ptr %3, align 4, !tbaa !18
  %5 = load i32, ptr @_ZN7logging12_GLOBAL__N_115g_min_log_levelE, align 4, !tbaa !18
  %6 = icmp slt i32 %4, %5
  br i1 %6, label %7, label %8

7:                                                ; preds = %1
  store i1 false, ptr %2, align 1
  br label %19

8:                                                ; preds = %1
  %9 = load i32, ptr @_ZN7logging12_GLOBAL__N_121g_logging_destinationE, align 4, !tbaa !38
  %10 = icmp ne i32 %9, 0
  br i1 %10, label %17, label %11

11:                                               ; preds = %8
  %12 = load ptr, ptr @_ZN7logging12_GLOBAL__N_119log_message_handlerB5cxx11E, align 8, !tbaa !59
  %13 = icmp ne ptr %12, null
  br i1 %13, label %17, label %14

14:                                               ; preds = %11
  %15 = load i32, ptr %3, align 4, !tbaa !18
  %16 = icmp sge i32 %15, 2
  br label %17

17:                                               ; preds = %14, %11, %8
  %18 = phi i1 [ true, %11 ], [ true, %8 ], [ %16, %14 ]
  store i1 %18, ptr %2, align 1
  br label %19

19:                                               ; preds = %17, %7
  %20 = load i1, ptr %2, align 1
  ret i1 %20
}