; Function Attrs: mustprogress nofree norecurse nosync nounwind willreturn memory(read, argmem: none, inaccessiblemem: none) uwtable
define noundef zeroext i1 @_ZN7logging22ShouldCreateLogMessageEi(i32 noundef %0) local_unnamed_addr #8 {
  %2 = load i32, ptr @_ZN7logging12_GLOBAL__N_115g_min_log_levelE, align 4, !tbaa !19
  %3 = icmp slt i32 %0, %2
  br i1 %3, label %10, label %4

4:                                                ; preds = %1
  %5 = load i32, ptr @_ZN7logging12_GLOBAL__N_121g_logging_destinationE, align 4, !tbaa !79
  %6 = icmp ne i32 %5, 0
  %7 = load ptr, ptr @_ZN7logging12_GLOBAL__N_119log_message_handlerB5cxx11E, align 8
  %8 = icmp ne ptr %7, null
  %or.cond = select i1 %6, i1 true, i1 %8
  %9 = icmp sgt i32 %0, 1
  %spec.select = or i1 %9, %or.cond
  br label %10

10:                                               ; preds = %1, %4
  %.0 = phi i1 [ %spec.select, %4 ], [ false, %1 ]
  ret i1 %.0
}